target datalayout = "e-m:e-p270:32:32-p271:32:32-p272:64:64-i64:64-i128:128-f80:128-n8:16:32:64-S128"
target triple = "x86_64-pc-linux-gnu"

%struct.ggml_tensor = type { i32, ptr, [4 x i64], [4 x i64], i32, [16 x i32], i32, [10 x ptr], ptr, i64, ptr, [64 x i8], ptr, [8 x i8] }

@.str.12 = private unnamed_addr constant [113 x i8] c"generated/home/dtcxzyw/WorkSpace/Projects/compilers/llvm-opt-benchmark/bench/llama.cpp/llama.cpp/ggml/src/ggml.c\00", align 1
@.str.13 = private unnamed_addr constant [23 x i8] c"GGML_ASSERT(%s) failed\00", align 1
@.str.32 = private unnamed_addr constant [23 x i8] c"!ggml_is_transposed(a)\00", align 1
@.str.42 = private unnamed_addr constant [24 x i8] c"ggml_can_out_prod(a, b)\00", align 1

; Function Attrs: nounwind uwtable
define ptr @ggml_new_tensor(ptr noundef %0, i32 noundef %1, i32 noundef %2, ptr noundef %3) #5 {
  %5 = alloca ptr, align 8
  %6 = alloca i32, align 4
  %7 = alloca i32, align 4
  %8 = alloca ptr, align 8
  store ptr %0, ptr %5, align 8, !tbaa !48
  store i32 %1, ptr %6, align 4, !tbaa !8
  store i32 %2, ptr %7, align 4, !tbaa !8
  store ptr %3, ptr %8, align 8, !tbaa !88
  %9 = load ptr, ptr %5, align 8, !tbaa !48
  %10 = load i32, ptr %6, align 4, !tbaa !8
  %11 = load i32, ptr %7, align 4, !tbaa !8
  %12 = load ptr, ptr %8, align 8, !tbaa !88
  %13 = call ptr @ggml_new_tensor_impl(ptr noundef %9, i32 noundef %10, i32 noundef %11, ptr noundef %12, ptr noundef null, i64 noundef 0)
  ret ptr %13
}

; Function Attrs: nounwind uwtable
define zeroext i1 @ggml_is_transposed(ptr noundef %0) #5 {
  %2 = alloca ptr, align 8
  store ptr %0, ptr %2, align 8, !tbaa !54
  %3 = load ptr, ptr %2, align 8, !tbaa !54
  %4 = getelementptr inbounds nuw %struct.ggml_tensor, ptr %3, i32 0, i32 3
  %5 = getelementptr inbounds [4 x i64], ptr %4, i64 0, i64 0
  %6 = load i64, ptr %5, align 8, !tbaa !19
  %7 = load ptr, ptr %2, align 8, !tbaa !54
  %8 = getelementptr inbounds nuw %struct.ggml_tensor, ptr %7, i32 0, i32 3
  %9 = getelementptr inbounds [4 x i64], ptr %8, i64 0, i64 1
  %10 = load i64, ptr %9, align 8, !tbaa !19
  %11 = icmp ugt i64 %6, %10
  ret i1 %11
}

; Function Attrs: inlinehint nounwind uwtable
define internal zeroext i1 @ggml_can_out_prod(ptr noundef %0, ptr noundef %1) #7 {
  %3 = alloca ptr, align 8
  %4 = alloca ptr, align 8
  store ptr %0, ptr %3, align 8, !tbaa !54
  store ptr %1, ptr %4, align 8, !tbaa !54
  %5 = load ptr, ptr %3, align 8, !tbaa !54
  %6 = getelementptr inbounds nuw %struct.ggml_tensor, ptr %5, i32 0, i32 2
  %7 = getelementptr inbounds [4 x i64], ptr %6, i64 0, i64 1
  %8 = load i64, ptr %7, align 8, !tbaa !19
  %9 = load ptr, ptr %4, align 8, !tbaa !54
  %10 = getelementptr inbounds nuw %struct.ggml_tensor, ptr %9, i32 0, i32 2
  %11 = getelementptr inbounds [4 x i64], ptr %10, i64 0, i64 1
  %12 = load i64, ptr %11, align 8, !tbaa !19
  %13 = icmp eq i64 %8, %12
  br i1 %13, label %14, label %36

14:                                               ; preds = %2
  %15 = load ptr, ptr %4, align 8, !tbaa !54
  %16 = getelementptr inbounds nuw %struct.ggml_tensor, ptr %15, i32 0, i32 2
  %17 = getelementptr inbounds [4 x i64], ptr %16, i64 0, i64 2
  %18 = load i64, ptr %17, align 8, !tbaa !19
  %19 = load ptr, ptr %3, align 8, !tbaa !54
  %20 = getelementptr inbounds nuw %struct.ggml_tensor, ptr %19, i32 0, i32 2
  %21 = getelementptr inbounds [4 x i64], ptr %20, i64 0, i64 2
  %22 = load i64, ptr %21, align 8, !tbaa !19
  %23 = srem i64 %18, %22
  %24 = icmp eq i64 %23, 0
  br i1 %24, label %25, label %36

25:                                               ; preds = %14
  %26 = load ptr, ptr %4, align 8, !tbaa !54
  %27 = getelementptr inbounds nuw %struct.ggml_tensor, ptr %26, i32 0, i32 2
  %28 = getelementptr inbounds [4 x i64], ptr %27, i64 0, i64 3
  %29 = load i64, ptr %28, align 8, !tbaa !19
  %30 = load ptr, ptr %3, align 8, !tbaa !54
  %31 = getelementptr inbounds nuw %struct.ggml_tensor, ptr %30, i32 0, i32 2
  %32 = getelementptr inbounds [4 x i64], ptr %31, i64 0, i64 3
  %33 = load i64, ptr %32, align 8, !tbaa !19
  %34 = srem i64 %29, %33
  %35 = icmp eq i64 %34, 0
  br label %36

36:                                               ; preds = %25, %14, %2
  %37 = phi i1 [ false, %14 ], [ false, %2 ], [ %35, %25 ]
  ret i1 %37
}

; Function Attrs: nounwind uwtable
define ptr @ggml_out_prod(ptr noundef %0, ptr noundef %1, ptr noundef %2) #5 {
  %4 = alloca ptr, align 8
  %5 = alloca ptr, align 8
  %6 = alloca ptr, align 8
  %7 = alloca [4 x i64], align 16
  %8 = alloca ptr, align 8
  store ptr %0, ptr %4, align 8, !tbaa !48
  store ptr %1, ptr %5, align 8, !tbaa !54
  store ptr %2, ptr %6, align 8, !tbaa !54
  %9 = load ptr, ptr %5, align 8, !tbaa !54
  %10 = load ptr, ptr %6, align 8, !tbaa !54
  %11 = call zeroext i1 @ggml_can_out_prod(ptr noundef %9, ptr noundef %10)
  br i1 %11, label %13, label %12

12:                                               ; preds = %3
  call void (ptr, i32, ptr, ...) @ggml_abort(ptr noundef @.str.12, i32 noundef 2779, ptr noundef @.str.13, ptr noundef @.str.42) #18
  unreachable

13:                                               ; preds = %3
  %14 = load ptr, ptr %5, align 8, !tbaa !54
  %15 = call zeroext i1 @ggml_is_transposed(ptr noundef %14)
  br i1 %15, label %16, label %17

16:                                               ; preds = %13
  call void (ptr, i32, ptr, ...) @ggml_abort(ptr noundef @.str.12, i32 noundef 2780, ptr noundef @.str.13, ptr noundef @.str.32) #18
  unreachable

17:                                               ; preds = %13
  call void @llvm.lifetime.start.p0(i64 32, ptr %7) #14
  %18 = load ptr, ptr %5, align 8, !tbaa !54
  %19 = getelementptr inbounds nuw %struct.ggml_tensor, ptr %18, i32 0, i32 2
  %20 = getelementptr inbounds [4 x i64], ptr %19, i64 0, i64 0
  %21 = load i64, ptr %20, align 8, !tbaa !19
  store i64 %21, ptr %7, align 8, !tbaa !19
  %22 = getelementptr inbounds i64, ptr %7, i64 1
  %23 = load ptr, ptr %6, align 8, !tbaa !54
  %24 = getelementptr inbounds nuw %struct.ggml_tensor, ptr %23, i32 0, i32 2
  %25 = getelementptr inbounds [4 x i64], ptr %24, i64 0, i64 0
  %26 = load i64, ptr %25, align 8, !tbaa !19
  store i64 %26, ptr %22, align 8, !tbaa !19
  %27 = getelementptr inbounds i64, ptr %7, i64 2
  %28 = load ptr, ptr %6, align 8, !tbaa !54
  %29 = getelementptr inbounds nuw %struct.ggml_tensor, ptr %28, i32 0, i32 2
  %30 = getelementptr inbounds [4 x i64], ptr %29, i64 0, i64 2
  %31 = load i64, ptr %30, align 8, !tbaa !19
  store i64 %31, ptr %27, align 8, !tbaa !19
  %32 = getelementptr inbounds i64, ptr %7, i64 3
  %33 = load ptr, ptr %6, align 8, !tbaa !54
  %34 = getelementptr inbounds nuw %struct.ggml_tensor, ptr %33, i32 0, i32 2
  %35 = getelementptr inbounds [4 x i64], ptr %34, i64 0, i64 3
  %36 = load i64, ptr %35, align 8, !tbaa !19
  store i64 %36, ptr %32, align 8, !tbaa !19
  call void @llvm.lifetime.start.p0(i64 8, ptr %8) #14
  %37 = load ptr, ptr %4, align 8, !tbaa !48
  %38 = getelementptr inbounds [4 x i64], ptr %7, i64 0, i64 0
  %39 = call ptr @ggml_new_tensor(ptr noundef %37, i32 noundef 0, i32 noundef 4, ptr noundef %38)
  store ptr %39, ptr %8, align 8, !tbaa !54
  %40 = load ptr, ptr %8, align 8, !tbaa !54
  %41 = getelementptr inbounds nuw %struct.ggml_tensor, ptr %40, i32 0, i32 4
  store i32 28, ptr %41, align 8, !tbaa !68
  %42 = load ptr, ptr %5, align 8, !tbaa !54
  %43 = load ptr, ptr %8, align 8, !tbaa !54
  %44 = getelementptr inbounds nuw %struct.ggml_tensor, ptr %43, i32 0, i32 7
  %45 = getelementptr inbounds [10 x ptr], ptr %44, i64 0, i64 0
  store ptr %42, ptr %45, align 8, !tbaa !54
  %46 = load ptr, ptr %6, align 8, !tbaa !54
  %47 = load ptr, ptr %8, align 8, !tbaa !54
  %48 = getelementptr inbounds nuw %struct.ggml_tensor, ptr %47, i32 0, i32 7
  %49 = getelementptr inbounds [10 x ptr], ptr %48, i64 0, i64 1
  store ptr %46, ptr %49, align 8, !tbaa !54
  %50 = load ptr, ptr %8, align 8, !tbaa !54
  call void @llvm.lifetime.end.p0(i64 8, ptr %8) #14
  call void @llvm.lifetime.end.p0(i64 32, ptr %7) #14
  ret ptr %50
}