; Function Attrs: nounwind uwtable
define noundef ptr @ggml_out_prod(ptr noundef captures(none) %0, ptr noundef %1, ptr noundef %2) local_unnamed_addr #4 {
  %4 = alloca [4 x i64], align 16
  %5 = getelementptr inbounds nuw i8, ptr %1, i64 24
  %6 = load i64, ptr %5, align 8, !tbaa !39
  %7 = getelementptr inbounds nuw i8, ptr %2, i64 24
  %8 = load i64, ptr %7, align 8, !tbaa !39
  %9 = icmp eq i64 %6, %8
  br i1 %9, label %10, label %ggml_can_out_prod.exit.thread

10:                                               ; preds = %3
  %11 = getelementptr inbounds nuw i8, ptr %2, i64 32
  %12 = load i64, ptr %11, align 8, !tbaa !39
  %13 = getelementptr inbounds nuw i8, ptr %1, i64 32
  %14 = load i64, ptr %13, align 8, !tbaa !39
  %15 = srem i64 %12, %14
  %16 = icmp eq i64 %15, 0
  br i1 %16, label %ggml_can_out_prod.exit, label %ggml_can_out_prod.exit.thread

ggml_can_out_prod.exit:                           ; preds = %10
  %17 = getelementptr inbounds nuw i8, ptr %2, i64 40
  %18 = load i64, ptr %17, align 8, !tbaa !39
  %19 = getelementptr inbounds nuw i8, ptr %1, i64 40
  %20 = load i64, ptr %19, align 8, !tbaa !39
  %21 = srem i64 %18, %20
  %22 = icmp eq i64 %21, 0
  br i1 %22, label %23, label %ggml_can_out_prod.exit.thread

ggml_can_out_prod.exit.thread:                    ; preds = %3, %10, %ggml_can_out_prod.exit
  tail call void (ptr, i32, ptr, ...) @ggml_abort(ptr noundef nonnull @.str.12, i32 noundef 2779, ptr noundef nonnull @.str.13, ptr noundef nonnull @.str.42) #47
  unreachable

23:                                               ; preds = %ggml_can_out_prod.exit
  %24 = getelementptr inbounds nuw i8, ptr %1, i64 48
  %25 = load i64, ptr %24, align 8, !tbaa !39
  %26 = getelementptr inbounds nuw i8, ptr %1, i64 56
  %27 = load i64, ptr %26, align 8, !tbaa !39
  %28 = icmp ugt i64 %25, %27
  br i1 %28, label %29, label %30

29:                                               ; preds = %23
  tail call void (ptr, i32, ptr, ...) @ggml_abort(ptr noundef nonnull @.str.12, i32 noundef 2780, ptr noundef nonnull @.str.13, ptr noundef nonnull @.str.32) #47
  unreachable

30:                                               ; preds = %23
  call void @llvm.lifetime.start.p0(i64 32, ptr nonnull %4) #42
  %31 = getelementptr inbounds nuw i8, ptr %1, i64 16
  %32 = load i64, ptr %31, align 8, !tbaa !39
  store i64 %32, ptr %4, align 16, !tbaa !39
  %33 = getelementptr inbounds nuw i8, ptr %4, i64 8
  %34 = getelementptr inbounds nuw i8, ptr %2, i64 16
  %35 = load i64, ptr %34, align 8, !tbaa !39
  store i64 %35, ptr %33, align 8, !tbaa !39
  %36 = getelementptr inbounds nuw i8, ptr %4, i64 16
  store i64 %12, ptr %36, align 16, !tbaa !39
  %37 = getelementptr inbounds nuw i8, ptr %4, i64 24
  store i64 %18, ptr %37, align 8, !tbaa !39
  %38 = call fastcc noundef ptr @ggml_new_tensor_impl(ptr noundef %0, i32 noundef 0, i32 noundef 4, ptr noundef nonnull readonly %4, ptr noundef null, i64 noundef 0)
  %39 = getelementptr inbounds nuw i8, ptr %38, i64 80
  store i32 28, ptr %39, align 8, !tbaa !55
  %40 = getelementptr inbounds nuw i8, ptr %38, i64 152
  store ptr %1, ptr %40, align 8, !tbaa !81
  %41 = getelementptr inbounds nuw i8, ptr %38, i64 160
  store ptr %2, ptr %41, align 8, !tbaa !81
  call void @llvm.lifetime.end.p0(i64 32, ptr nonnull %4) #42
  ret ptr %38
}